target datalayout = "e-m:e-p270:32:32-p271:32:32-p272:64:64-i64:64-i128:128-f80:128-n8:16:32:64-S128"
target triple = "x86_64-pc-linux-gnu"

%struct.buf_t = type { i32, ptr, i32, i32, i8, i8 }

@.str.1 = private unnamed_addr constant [7 x i8] c"pack.c\00", align 1
@.str.6 = private unnamed_addr constant [46 x i8] c"attempt to grow mmap()'d buffer not supported\00", align 1
@.str.7 = private unnamed_addr constant [44 x i8] c"attempt to grow shadow buffer not supported\00", align 1
@.str.8 = private unnamed_addr constant [42 x i8] c"%s: Buffer size limit exceeded (%lu > %u)\00", align 1
@__func__.grow_buf = private unnamed_addr constant [9 x i8] c"grow_buf\00", align 1

; Function Attrs: nounwind uwtable
define dso_local void @grow_buf(ptr noundef %0, i32 noundef %1) #0 {
  %3 = alloca ptr, align 8
  %4 = alloca i32, align 4
  %5 = alloca i64, align 8
  store ptr %0, ptr %3, align 8
  store i32 %1, ptr %4, align 4
  call void @llvm.lifetime.start.p0(i64 8, ptr %5) #9
  %6 = load i32, ptr %4, align 4
  %7 = zext i32 %6 to i64
  %8 = load ptr, ptr %3, align 8
  %9 = getelementptr inbounds nuw %struct.buf_t, ptr %8, i32 0, i32 2
  %10 = load i32, ptr %9, align 8
  %11 = zext i32 %10 to i64
  %12 = add i64 %7, %11
  store i64 %12, ptr %5, align 8
  %13 = load ptr, ptr %3, align 8
  %14 = getelementptr inbounds nuw %struct.buf_t, ptr %13, i32 0, i32 4
  %15 = load i8, ptr %14, align 8, !range !8, !noundef !9
  %16 = trunc i8 %15 to i1
  br i1 %16, label %17, label %18

17:                                               ; preds = %2
  call void (ptr, ...) @fatal_abort(ptr noundef @.str.6) #10
  unreachable

18:                                               ; preds = %2
  %19 = load ptr, ptr %3, align 8
  %20 = getelementptr inbounds nuw %struct.buf_t, ptr %19, i32 0, i32 5
  %21 = load i8, ptr %20, align 1, !range !8, !noundef !9
  %22 = trunc i8 %21 to i1
  br i1 %22, label %23, label %24

23:                                               ; preds = %18
  call void (ptr, ...) @fatal_abort(ptr noundef @.str.7) #10
  unreachable

24:                                               ; preds = %18
  %25 = load i64, ptr %5, align 8
  %26 = icmp ugt i64 %25, 4294901760
  br i1 %26, label %27, label %29

27:                                               ; preds = %24
  %28 = load i64, ptr %5, align 8
  call void (ptr, ...) @fatal_abort(ptr noundef @.str.8, ptr noundef @__func__.grow_buf, i64 noundef %28, i32 noundef -65536) #10
  unreachable

29:                                               ; preds = %24
  %30 = load i64, ptr %5, align 8
  %31 = trunc i64 %30 to i32
  %32 = load ptr, ptr %3, align 8
  %33 = getelementptr inbounds nuw %struct.buf_t, ptr %32, i32 0, i32 2
  store i32 %31, ptr %33, align 8
  %34 = load ptr, ptr %3, align 8
  %35 = getelementptr inbounds nuw %struct.buf_t, ptr %34, i32 0, i32 1
  %36 = load ptr, ptr %3, align 8
  %37 = getelementptr inbounds nuw %struct.buf_t, ptr %36, i32 0, i32 2
  %38 = load i32, ptr %37, align 8
  %39 = zext i32 %38 to i64
  %40 = call ptr @slurm_xrecalloc(ptr noundef %35, i64 noundef 1, i64 noundef %39, i1 noundef zeroext false, i1 noundef zeroext false, ptr noundef @.str.1, i32 noundef 214, ptr noundef @__func__.grow_buf)
  call void @llvm.lifetime.end.p0(i64 8, ptr %5) #9
  ret void
}