; Function Attrs: nounwind uwtable
define dso_local void @grow_buf(ptr noundef %0, i32 noundef %1) #0 {
  %3 = zext i32 %1 to i64
  %4 = getelementptr inbounds nuw i8, ptr %0, i64 16
  %5 = load i32, ptr %4, align 8
  %6 = zext i32 %5 to i64
  %7 = add nuw nsw i64 %6, %3
  %8 = getelementptr inbounds nuw i8, ptr %0, i64 24
  %9 = load i8, ptr %8, align 8, !range !8, !noundef !9
  %10 = trunc nuw i8 %9 to i1
  br i1 %10, label %11, label %12

11:                                               ; preds = %2
  tail call void (ptr, ...) @fatal_abort(ptr noundef nonnull @.str.6) #15
  unreachable

12:                                               ; preds = %2
  %13 = getelementptr inbounds nuw i8, ptr %0, i64 25
  %14 = load i8, ptr %13, align 1, !range !8, !noundef !9
  %15 = trunc nuw i8 %14 to i1
  br i1 %15, label %16, label %17

16:                                               ; preds = %12
  tail call void (ptr, ...) @fatal_abort(ptr noundef nonnull @.str.7) #15
  unreachable

17:                                               ; preds = %12
  %18 = icmp samesign ugt i64 %7, 4294901760
  br i1 %18, label %19, label %20

19:                                               ; preds = %17
  tail call void (ptr, ...) @fatal_abort(ptr noundef nonnull @.str.8, ptr noundef nonnull @__func__.grow_buf, i64 noundef %7, i32 noundef -65536) #15
  unreachable

20:                                               ; preds = %17
  %21 = trunc nuw i64 %7 to i32
  store i32 %21, ptr %4, align 8
  %22 = getelementptr inbounds nuw i8, ptr %0, i64 8
  %23 = tail call ptr @slurm_xrecalloc(ptr noundef nonnull %22, i64 noundef 1, i64 noundef %7, i1 noundef zeroext false, i1 noundef zeroext false, ptr noundef nonnull @.str.1, i32 noundef 214, ptr noundef nonnull @__func__.grow_buf) #14
  ret void
}